(dp0
S'cards'
p1
(lp2
(lp3
S'8'
p4
aS'h'
p5
aI8
aa(lp6
S'K'
p7
aS's'
p8
aI13
aa(lp9
g7
ag5
aI13
aa(lp10
S'Q'
p11
aS'c'
p12
aI12
aa(lp13
S'7'
p14
ag5
aI7
aa(lp15
S'J'
p16
ag8
aI11
aa(lp17
S'3'
p18
ag5
aI3
aa(lp19
g18
aS'd'
p20
aI3
aa(lp21
S'2'
p22
ag20
aI2
aa(lp23
S'6'
p24
ag12
aI6
aa(lp25
g22
ag8
aI2
aa(lp26
S'4'
p27
ag8
aI4
aa(lp28
g24
ag20
aI6
aa(lp29
S'9'
p30
ag8
aI9
aa(lp31
g7
ag20
aI13
aa(lp32
g18
ag8
aI3
aa(lp33
g27
ag5
aI4
aa(lp34
g30
ag20
aI9
aa(lp35
g27
ag20
aI4
aa(lp36
g16
ag5
aI11
aa(lp37
S'5'
p38
ag8
aI5
aa(lp39
g11
ag8
aI12
aa(lp40
g14
ag12
aI7
aa(lp41
g11
ag5
aI12
aa(lp42
g16
ag12
aI11
aa(lp43
g38
ag20
aI5
aa(lp44
g24
ag8
aI6
aasS'discards'
p45
(lp46
(lp47
S'A'
p48
aS'h'
p49
aI1
aa(lp50
g48
aS'd'
p51
aI1
aa(lp52
S'8'
p53
aS'c'
p54
aI8
aa(lp55
g53
ag51
aI8
aa(lp56
g7
ag12
aI13
aa(lp57
V7
p58
aVs
p59
aI7
aa(lp60
g30
ag5
aI9
aasS'last_discard_num'
p61
I2
s.