(lp0
(dp1
S'name'
p2
VKJP
p3
sS'ai'
p4
I0
sS'pid'
p5
I0
sS'hand'
p6
(lp7
(lp8
S'T'
p9
aS's'
p10
aI10
aa(lp11
S'9'
p12
ag10
aI9
aa(lp13
S'8'
p14
aS'c'
p15
aI8
aa(lp16
S'7'
p17
ag10
aI7
aa(lp18
S'3'
p19
ag15
aI3
aasS'score'
p20
I0
sS'yaniv_count'
p21
I0
sa(dp22
g2
S'ai1'
p23
sg4
I1
sg5
I1
sg6
(lp24
(lp25
VK
p26
aVd
p27
aI13
aa(lp28
S'K'
p29
ag15
aI13
aa(lp30
g17
aS'h'
p31
aI7
aa(lp32
g19
aS'd'
p33
aI3
aasg20
I0
sg21
I0
sa(dp34
g2
S'ai2'
p35
sg4
I1
sg5
I2
sg6
(lp36
(lp37
S'Q'
p38
ag10
aI12
aa(lp39
g9
ag31
aI10
aa(lp40
S'5'
p41
ag15
aI5
aa(lp42
g19
ag31
aI3
aasg20
I0
sg21
I0
sa(dp43
g2
S'ai3'
p44
sg4
I1
sg5
I3
sg6
(lp45
(lp46
g12
ag31
aI9
aa(lp47
g14
ag33
aI8
aa(lp48
S'6'
p49
ag33
aI6
aa(lp50
S'4'
p51
ag33
aI4
aa(lp52
S'2'
p53
ag33
aI2
aasg20
I0
sg21
I0
sa(dp54
g2
S'ai4'
p55
sg4
I1
sg5
I4
sg6
(lp56
(lp57
g38
ag33
aI12
aa(lp58
S'J'
p59
ag10
aI11
aa(lp60
g49
ag10
aI6
aa(lp61
S'A'
p62
ag33
aI1
aasg20
I0
sg21
I0
sa(dp63
g2
S'ai5'
p64
sg4
I1
sg5
I5
sg6
(lp65
(lp66
g29
ag33
aI13
aa(lp67
g29
ag31
aI13
aa(lp68
g17
ag15
aI7
aa(lp69
g51
ag15
aI4
aa(lp70
g53
ag10
aI2
aasg20
I0
sg21
I0
sa(dp71
g2
S'ai6'
p72
sg4
I1
sg5
I6
sg6
(lp73
(lp74
g38
ag31
aI12
aa(lp75
g9
ag33
aI10
aa(lp76
g51
ag10
aI4
aa(lp77
g62
ag10
aI1
aasg20
I0
sg21
I0
sa(dp78
g2
S'ai7'
p79
sg4
I1
sg5
I7
sg6
(lp80
(lp81
g29
ag15
aI13
aa(lp82
g29
ag10
aI13
aa(lp83
g17
ag33
aI7
aa(lp84
g49
ag15
aI6
aasg20
I0
sg21
I0
sa.