(lp0
(dp1
S'name'
p2
VKJP
p3
sS'ai'
p4
I0
sS'pid'
p5
I0
sS'hand'
p6
(lp7
(lp8
S'Q'
p9
aS'c'
p10
aI12
aa(lp11
S'7'
p12
aS's'
p13
aI7
aa(lp14
S'5'
p15
aS'h'
p16
aI5
aa(lp17
S'4'
p18
aS'd'
p19
aI4
aa(lp20
S'3'
p21
ag10
aI3
aasS'score'
p22
I9
sS'yaniv_count'
p23
I0
sa(dp24
g2
S'ai1'
p25
sg4
I1
sg5
I1
sg6
(lp26
(lp27
S'K'
p28
ag10
aI13
aa(lp29
S'8'
p30
ag13
aI8
aa(lp31
S'6'
p32
ag10
aI6
aa(lp33
g15
ag13
aI5
aa(lp34
S'2'
p35
ag16
aI2
aasg22
I13
sg23
I0
sa(dp36
g2
S'ai2'
p37
sg4
I1
sg5
I2
sg6
(lp38
(lp39
g28
ag19
aI13
aa(lp40
S'J'
p41
ag13
aI11
aa(lp42
S'9'
p43
ag13
aI9
aa(lp44
g18
ag13
aI4
aa(lp45
g35
ag13
aI2
aasg22
I20
sg23
I0
sa(dp46
g2
S'ai3'
p47
sg4
I1
sg5
I3
sg6
(lp48
(lp49
g9
ag13
aI12
aa(lp50
g43
ag16
aI9
aa(lp51
g32
ag16
aI6
aa(lp52
g32
ag13
aI6
aa(lp53
g35
ag19
aI2
aasg22
I11
sg23
I0
sa(dp54
g2
S'ai4'
p55
sg4
I1
sg5
I4
sg6
(lp56
(lp57
g41
ag16
aI11
aa(lp58
g30
ag19
aI8
aa(lp59
g32
ag19
aI6
aa(lp60
g18
ag10
aI4
aasg22
I0
sg23
I1
sa(dp61
g2
S'ai5'
p62
sg4
I1
sg5
I5
sg6
(lp63
(lp64
g28
ag16
aI13
aa(lp65
g28
ag16
aI13
aa(lp66
g28
ag13
aI13
aa(lp67
g15
ag19
aI5
aa(lp68
g35
ag10
aI2
aasg22
I13
sg23
I0
sa(dp69
g2
S'ai6'
p70
sg4
I1
sg5
I6
sg6
(lp71
(lp72
g9
ag19
aI12
aa(lp73
S'T'
p74
ag19
aI10
aa(lp75
g15
ag10
aI5
aa(lp76
g21
ag19
aI3
aa(lp77
S'A'
p78
ag16
aI1
aasg22
I8
sg23
I0
sa(dp79
g2
S'ai7'
p80
sg4
I1
sg5
I7
sg6
(lp81
(lp82
g74
ag13
aI10
aa(lp83
g43
ag19
aI9
aa(lp84
g30
ag16
aI8
aa(lp85
g12
ag10
aI7
aasg22
I13
sg23
I0
sa.