(lp0
(dp1
S'name'
p2
VKJP
p3
sS'ai'
p4
I0
sS'pid'
p5
I0
sS'hand'
p6
(lp7
(lp8
S'9'
p9
aS'c'
p10
aI9
aa(lp11
S'5'
p12
ag10
aI5
aa(lp13
g12
aS'd'
p14
aI5
aa(lp15
S'4'
p16
aS'h'
p17
aI4
aa(lp18
S'A'
p19
ag17
aI1
aasS'score'
p20
I27
sS'yaniv_count'
p21
I0
sa(dp22
g2
S'ai1'
p23
sg4
I1
sg5
I1
sg6
(lp24
(lp25
S'Q'
p26
ag10
aI12
aa(lp27
S'J'
p28
ag17
aI11
aa(lp29
g28
ag10
aI11
aa(lp30
S'8'
p31
ag10
aI8
aa(lp32
S'3'
p33
ag10
aI3
aasg20
I21
sg21
I0
sa(dp34
g2
S'ai2'
p35
sg4
I1
sg5
I2
sg6
(lp36
(lp37
S'K'
p38
ag17
aI13
aa(lp39
g38
aS's'
p40
aI13
aa(lp41
g28
ag14
aI11
aa(lp42
S'T'
p43
ag40
aI10
aa(lp44
g9
ag17
aI9
aasg20
I25
sg21
I0
sa(dp45
g2
S'ai3'
p46
sg4
I1
sg5
I3
sg6
(lp47
(lp48
g38
ag14
aI13
aa(lp49
g38
ag14
aI13
aa(lp50
g43
ag17
aI10
aa(lp51
g9
ag14
aI9
aa(lp52
S'6'
p53
ag14
aI6
aasg20
I10
sg21
I0
sa(dp54
g2
S'ai4'
p55
sg4
I1
sg5
I4
sg6
(lp56
(lp57
g26
ag14
aI12
aa(lp58
g43
ag14
aI10
aa(lp59
g53
ag17
aI6
aa(lp60
g16
ag10
aI4
aa(lp61
g33
ag17
aI3
aasg20
I25
sg21
I0
sa(dp62
g2
S'ai5'
p63
sg4
I1
sg5
I5
sg6
(lp64
(lp65
g12
ag17
aI5
aa(lp66
g16
ag40
aI4
aa(lp67
S'2'
p68
ag40
aI2
aa(lp69
g19
ag10
aI1
aasg20
I13
sg21
I1
sa(dp70
g2
S'ai6'
p71
sg4
I1
sg5
I6
sg6
(lp72
(lp73
g28
ag40
aI11
aa(lp74
g31
ag14
aI8
aa(lp75
g12
ag40
aI5
aa(lp76
g33
ag40
aI3
aa(lp77
g68
ag17
aI2
aasg20
I12
sg21
I1
sa(dp78
g2
S'ai7'
p79
sg4
I1
sg5
I7
sg6
(lp80
(lp81
g38
ag17
aI13
aa(lp82
g43
ag10
aI10
aa(lp83
S'7'
p84
ag10
aI7
aa(lp85
g53
ag10
aI6
aasg20
I10
sg21
I0
sa.