(dp0
S'lucky_draw'
p1
I00
sS'round_count'
p2
I1
sS'ai_level'
p3
I1
sS'num_ai'
p4
I3
sS'turn_count'
p5
I4
sS'ai_think_secs'
p6
I5
sS'cur_pid'
p7
I0
sS'round_break'
p8
I30
sS'last_pick_up'
p9
(lp10
S'D'
p11
ag11
aI0
asS'num_humans'
p12
I1
sS'score_max'
p13
I100
s.