(dp0
S'lucky_draw'
p1
I01
sS'ai_level'
p2
I1
sS'num_ai'
p3
I7
sS'ai_think_secs'
p4
I1
sS'round_break'
p5
I30
sS'last_pick_up'
p6
(lp7
S'J'
p8
aS'd'
p9
aI11
asS'num_humans'
p10
I1
sS'score_max'
p11
I100
s.