(dp0
S'lucky_draw'
p1
I00
sS'round_count'
p2
I1
sS'ai_level'
p3
I1
sS'num_ai'
p4
I7
sS'turn_count'
p5
I8
sS'ai_think_secs'
p6
I0
sS'cur_pid'
p7
I0
sS'round_break'
p8
I30
sS'last_pick_up'
p9
(lp10
S'K'
p11
aS'c'
p12
aI13
asS'num_humans'
p13
I1
sS'score_max'
p14
I100
s.